Certificate:
    Data:
        Version: 3 (0x2)
        Serial Number:
            af:36:ba:d7:c9:04:63:13
    Signature Algorithm: sha256WithRSAEncryption
        Issuer: CN=support1.daf5.internal
        Validity
            Not Before: Jun  4 07:52:58 2019 GMT
            Not After : Jun  3 07:52:58 2020 GMT
        Subject: CN=support1.daf5.internal
        Subject Public Key Info:
            Public Key Algorithm: rsaEncryption
                Public-Key: (2048 bit)
                Modulus:
                    00:ca:53:79:6f:c5:b1:43:18:da:4b:1b:ce:3e:90:
                    05:a1:7e:05:91:e8:20:92:77:f9:fb:1e:8c:ee:82:
                    6d:cd:79:b7:33:20:b7:e3:97:1c:f6:b3:56:a5:d1:
                    ef:8d:86:b6:c4:66:1c:fb:a5:ba:bc:d0:70:3c:81:
                    4d:06:2e:f4:18:d0:50:ef:9f:9b:66:83:f3:c7:e1:
                    12:38:54:77:79:71:88:e3:d6:5d:46:98:b5:42:c3:
                    37:23:40:00:12:32:1a:21:4e:19:6f:aa:20:0d:7a:
                    e2:84:04:44:92:32:5a:34:b3:45:e9:2f:e3:10:9a:
                    4d:dc:1e:50:3d:51:75:50:58:f3:9a:6c:3a:2b:d9:
                    75:c0:67:d8:92:15:57:00:f3:14:1c:78:59:ab:99:
                    ff:1e:fa:ac:4f:0d:02:d8:32:a8:3c:22:a8:9d:cd:
                    4d:c4:b4:b4:de:f2:88:7d:34:d4:dc:b5:f4:65:cb:
                    9b:7c:08:e3:11:7e:d9:b3:9d:95:93:de:b5:7b:30:
                    df:eb:ec:a9:26:a9:8c:ea:25:49:51:9d:08:44:1c:
                    67:bf:05:43:31:28:0d:d9:e9:d5:7d:2a:c3:8f:f2:
                    d3:5f:7f:e9:42:a3:19:dd:f7:8a:b9:b5:84:fb:cc:
                    3d:33:a3:ca:d7:ff:7e:f4:26:67:76:41:f6:c0:05:
                    80:ef
                Exponent: 65537 (0x10001)
        X509v3 extensions:
            X509v3 Subject Key Identifier: 
                D6:2D:B4:C0:16:85:91:69:58:07:33:8D:86:BE:8E:D5:01:54:D3:D8
            X509v3 Authority Key Identifier: 
                keyid:D6:2D:B4:C0:16:85:91:69:58:07:33:8D:86:BE:8E:D5:01:54:D3:D8

            X509v3 Basic Constraints: 
                CA:TRUE
    Signature Algorithm: sha256WithRSAEncryption
         2f:ab:59:cb:7a:80:4f:64:fc:ec:e3:c5:1f:0b:bc:14:35:29:
         50:14:20:13:04:43:4e:0d:91:2c:e7:dc:43:ca:cf:af:43:35:
         f2:63:b5:2b:cf:29:93:59:04:e7:f9:7c:4e:c2:f7:aa:7e:e9:
         ce:2f:89:77:41:2f:5b:b7:82:9e:fb:92:a6:d7:64:93:a7:db:
         30:2b:93:98:5b:9a:fc:a4:d9:a3:de:de:7a:51:dc:dd:ae:cc:
         d1:6e:dd:0e:71:b0:da:c5:c5:7a:ed:46:19:be:65:c0:6d:f4:
         23:47:cd:58:9a:5e:8b:bd:19:bb:56:76:83:22:61:07:2c:a5:
         9b:9f:8f:6f:61:22:6b:f2:40:4b:a5:f8:03:7d:51:ef:bf:ba:
         57:d9:cd:76:3b:bf:79:6f:af:39:8a:cb:27:24:26:d7:e8:66:
         1f:6f:5d:51:1c:6c:89:eb:7d:cb:7b:6b:9a:2f:13:b8:43:94:
         f8:7b:1f:af:81:1c:42:ca:c2:9f:11:82:14:70:3b:de:0d:9b:
         80:39:7b:7e:30:f7:97:0b:46:fe:e4:88:0d:c5:31:cb:6e:02:
         c4:85:4f:00:64:e3:a8:b1:a8:ad:df:c4:0a:b5:2a:9b:3f:1d:
         e7:8e:4d:14:d0:be:e5:7f:ee:f6:9f:05:44:7e:87:64:c8:18:
         04:fc:0e:70
-----BEGIN CERTIFICATE-----
MIIDFTCCAf2gAwIBAgIJAK82utfJBGMTMA0GCSqGSIb3DQEBCwUAMCExHzAdBgNV
BAMMFnN1cHBvcnQxLmRhZjUuaW50ZXJuYWwwHhcNMTkwNjA0MDc1MjU4WhcNMjAw
NjAzMDc1MjU4WjAhMR8wHQYDVQQDDBZzdXBwb3J0MS5kYWY1LmludGVybmFsMIIB
IjANBgkqhkiG9w0BAQEFAAOCAQ8AMIIBCgKCAQEAylN5b8WxQxjaSxvOPpAFoX4F
keggknf5+x6M7oJtzXm3MyC345cc9rNWpdHvjYa2xGYc+6W6vNBwPIFNBi70GNBQ
75+bZoPzx+ESOFR3eXGI49ZdRpi1QsM3I0AAEjIaIU4Zb6ogDXrihAREkjJaNLNF
6S/jEJpN3B5QPVF1UFjzmmw6K9l1wGfYkhVXAPMUHHhZq5n/HvqsTw0C2DKoPCKo
nc1NxLS03vKIfTTU3LX0ZcubfAjjEX7Zs52Vk961ezDf6+ypJqmM6iVJUZ0IRBxn
vwVDMSgN2enVfSrDj/LTX3/pQqMZ3feKubWE+8w9M6PK1/9+9CZndkH2wAWA7wID
AQABo1AwTjAdBgNVHQ4EFgQU1i20wBaFkWlYBzONhr6O1QFU09gwHwYDVR0jBBgw
FoAU1i20wBaFkWlYBzONhr6O1QFU09gwDAYDVR0TBAUwAwEB/zANBgkqhkiG9w0B
AQsFAAOCAQEAL6tZy3qAT2T87OPFHwu8FDUpUBQgEwRDTg2RLOfcQ8rPr0M18mO1
K88pk1kE5/l8TsL3qn7pzi+Jd0EvW7eCnvuSptdkk6fbMCuTmFua/KTZo97eelHc
3a7M0W7dDnGw2sXFeu1GGb5lwG30I0fNWJpei70Zu1Z2gyJhByylm5+Pb2Eia/JA
S6X4A31R77+6V9nNdju/eW+vOYrLJyQm1+hmH29dURxsiet9y3trmi8TuEOU+Hsf
r4EcQsrCnxGCFHA73g2bgDl7fjD3lwtG/uSIDcUxy24CxIVPAGTjqLGord/ECrUq
mz8d545NFNC+5X/u9p8FRH6HZMgYBPwOcA==
-----END CERTIFICATE-----
